target datalayout = "e-m:e-p270:32:32-p271:32:32-p272:64:64-i64:64-i128:128-f80:128-n8:16:32:64-S128"
target triple = "x86_64-pc-linux-gnu"

%union.pthread_mutex_t = type { %struct.__pthread_mutex_s }
%struct.__pthread_mutex_s = type { i32, i32, i32, i32, i32, i16, i16, %struct.__pthread_internal_list }
%struct.__pthread_internal_list = type { ptr, ptr }
%"struct.std::atomic" = type { %"struct.std::__atomic_base" }
%"struct.std::__atomic_base" = type { i8 }
%"class.std::lock_guard" = type { ptr }
%"class.std::__mutex_base" = type { %union.pthread_mutex_t }

@_ZZN6memory10initializeEmE8init_mux = internal global { %union.pthread_mutex_t } zeroinitializer, align 8
@_ZL17g_memory_max_size = internal global i64 0, align 8
@_ZL20g_memory_initialized = internal global i8 0, align 1
@_ZL22g_memory_out_of_memory = internal global %"struct.std::atomic" zeroinitializer, align 1

; Function Attrs: mustprogress nounwind uwtable
define linkonce_odr noundef i32 @_ZStanSt12memory_orderSt23__memory_order_modifier(i32 noundef %0, i32 noundef %1) #6 comdat {
  %3 = alloca i32, align 4
  %4 = alloca i32, align 4
  store i32 %0, ptr %3, align 4, !tbaa !43
  store i32 %1, ptr %4, align 4, !tbaa !45
  %5 = load i32, ptr %3, align 4, !tbaa !43
  %6 = load i32, ptr %4, align 4, !tbaa !45
  %7 = and i32 %5, %6
  ret i32 %7
}

; Function Attrs: inlinehint mustprogress nounwind uwtable
define internal noundef i32 @_ZL18__gthread_active_pv() #12 {
  ret i32 1
}

; Function Attrs: inlinehint mustprogress nounwind uwtable
define internal noundef i32 @_ZL22__gthread_mutex_unlockP15pthread_mutex_t(ptr noundef %0) #12 {
  %2 = alloca i32, align 4
  %3 = alloca ptr, align 8
  store ptr %0, ptr %3, align 8, !tbaa !32
  %4 = call noundef i32 @_ZL18__gthread_active_pv()
  %5 = icmp ne i32 %4, 0
  br i1 %5, label %6, label %9

6:                                                ; preds = %1
  %7 = load ptr, ptr %3, align 8, !tbaa !32
  %8 = call i32 @pthread_mutex_unlock(ptr noundef %7) #3
  store i32 %8, ptr %2, align 4
  br label %10

9:                                                ; preds = %1
  store i32 0, ptr %2, align 4
  br label %10

10:                                               ; preds = %9, %6
  %11 = load i32, ptr %2, align 4
  ret i32 %11
}

; Function Attrs: alwaysinline mustprogress nounwind uwtable
define linkonce_odr hidden void @_ZNSt13__atomic_baseIbE5storeEbSt12memory_order(ptr noundef nonnull align 1 dereferenceable(1) %0, i1 noundef zeroext %1, i32 noundef %2) #14 comdat align 2 personality ptr @__gxx_personality_v0 {
  %4 = alloca ptr, align 8
  %5 = alloca i8, align 1
  %6 = alloca i32, align 4
  %7 = alloca i32, align 4
  %8 = alloca i8, align 1
  store ptr %0, ptr %4, align 8, !tbaa !41
  %9 = zext i1 %1 to i8
  store i8 %9, ptr %5, align 1, !tbaa !12
  store i32 %2, ptr %6, align 4, !tbaa !43
  %10 = load ptr, ptr %4, align 8
  call void @llvm.lifetime.start.p0(i64 4, ptr %7) #3
  %11 = load i32, ptr %6, align 4, !tbaa !43
  %12 = invoke noundef i32 @_ZStanSt12memory_orderSt23__memory_order_modifier(i32 noundef %11, i32 noundef 65535)
          to label %13 unwind label %35

13:                                               ; preds = %3
  store i32 %12, ptr %7, align 4, !tbaa !43
  br label %14

14:                                               ; preds = %13
  br label %15

15:                                               ; preds = %14
  br label %16

16:                                               ; preds = %15
  br label %17

17:                                               ; preds = %16
  br label %18

18:                                               ; preds = %17
  br label %19

19:                                               ; preds = %18
  br label %20

20:                                               ; preds = %19
  br label %21

21:                                               ; preds = %20
  br label %22

22:                                               ; preds = %21
  %23 = getelementptr inbounds nuw %"struct.std::__atomic_base", ptr %10, i32 0, i32 0
  %24 = load i32, ptr %6, align 4, !tbaa !43
  %25 = load i8, ptr %5, align 1, !tbaa !12, !range !16, !noundef !17
  %26 = trunc i8 %25 to i1
  %27 = zext i1 %26 to i8
  store i8 %27, ptr %8, align 1, !tbaa !12
  switch i32 %24, label %28 [
    i32 3, label %30
    i32 5, label %32
  ]

28:                                               ; preds = %22
  %29 = load i8, ptr %8, align 1
  store atomic i8 %29, ptr %23 monotonic, align 1
  br label %34

30:                                               ; preds = %22
  %31 = load i8, ptr %8, align 1
  store atomic i8 %31, ptr %23 release, align 1
  br label %34

32:                                               ; preds = %22
  %33 = load i8, ptr %8, align 1
  store atomic i8 %33, ptr %23 seq_cst, align 1
  br label %34

34:                                               ; preds = %32, %30, %28
  call void @llvm.lifetime.end.p0(i64 4, ptr %7) #3
  ret void

35:                                               ; preds = %3
  %36 = landingpad { ptr, i32 }
          catch ptr null
  %37 = extractvalue { ptr, i32 } %36, 0
  call void @__clang_call_terminate(ptr %37) #21
  unreachable
}

; Function Attrs: inlinehint mustprogress uwtable
define internal noundef i32 @_ZL20__gthread_mutex_lockP15pthread_mutex_t(ptr noundef %0) #8 {
  %2 = alloca i32, align 4
  %3 = alloca ptr, align 8
  store ptr %0, ptr %3, align 8, !tbaa !32
  %4 = call noundef i32 @_ZL18__gthread_active_pv()
  %5 = icmp ne i32 %4, 0
  br i1 %5, label %6, label %9

6:                                                ; preds = %1
  %7 = load ptr, ptr %3, align 8, !tbaa !32
  %8 = call i32 @pthread_mutex_lock(ptr noundef %7) #3
  store i32 %8, ptr %2, align 4
  br label %10

9:                                                ; preds = %1
  store i32 0, ptr %2, align 4
  br label %10

10:                                               ; preds = %9, %6
  %11 = load i32, ptr %2, align 4
  ret i32 %11
}

; Function Attrs: noinline noreturn nounwind uwtable
define linkonce_odr hidden void @__clang_call_terminate(ptr noundef %0) #15 comdat {
  %2 = call ptr @__cxa_begin_catch(ptr %0) #3
  call void @_ZSt9terminatev() #21
  unreachable
}

; Function Attrs: mustprogress uwtable
define linkonce_odr hidden void @_ZNSt5mutex6unlockEv(ptr noundef nonnull align 8 dereferenceable(40) %0) #4 comdat align 2 {
  %2 = alloca ptr, align 8
  store ptr %0, ptr %2, align 8, !tbaa !10
  %3 = load ptr, ptr %2, align 8
  %4 = getelementptr inbounds nuw %"class.std::__mutex_base", ptr %3, i32 0, i32 0
  %5 = call noundef i32 @_ZL22__gthread_mutex_unlockP15pthread_mutex_t(ptr noundef %4)
  ret void
}

; Function Attrs: mustprogress nounwind uwtable
define linkonce_odr hidden noundef zeroext i1 @_ZNSt13__atomic_baseIbEaSEb(ptr noundef nonnull align 1 dereferenceable(1) %0, i1 noundef zeroext %1) #6 comdat align 2 {
  %3 = alloca ptr, align 8
  %4 = alloca i8, align 1
  store ptr %0, ptr %3, align 8, !tbaa !41
  %5 = zext i1 %1 to i8
  store i8 %5, ptr %4, align 1, !tbaa !12
  %6 = load ptr, ptr %3, align 8
  %7 = load i8, ptr %4, align 1, !tbaa !12, !range !16, !noundef !17
  %8 = trunc i8 %7 to i1
  call void @_ZNSt13__atomic_baseIbE5storeEbSt12memory_order(ptr noundef nonnull align 1 dereferenceable(1) %6, i1 noundef zeroext %8, i32 noundef 5) #3
  %9 = load i8, ptr %4, align 1, !tbaa !12, !range !16, !noundef !17
  %10 = trunc i8 %9 to i1
  ret i1 %10
}

; Function Attrs: mustprogress uwtable
define linkonce_odr hidden void @_ZNSt5mutex4lockEv(ptr noundef nonnull align 8 dereferenceable(40) %0) #4 comdat align 2 {
  %2 = alloca ptr, align 8
  %3 = alloca i32, align 4
  store ptr %0, ptr %2, align 8, !tbaa !10
  %4 = load ptr, ptr %2, align 8
  call void @llvm.lifetime.start.p0(i64 4, ptr %3) #3
  %5 = getelementptr inbounds nuw %"class.std::__mutex_base", ptr %4, i32 0, i32 0
  %6 = call noundef i32 @_ZL20__gthread_mutex_lockP15pthread_mutex_t(ptr noundef %5)
  store i32 %6, ptr %3, align 4, !tbaa !59
  %7 = load i32, ptr %3, align 4, !tbaa !59
  %8 = icmp ne i32 %7, 0
  br i1 %8, label %9, label %11

9:                                                ; preds = %1
  %10 = load i32, ptr %3, align 4, !tbaa !59
  call void @_ZSt20__throw_system_errori(i32 noundef %10) #23
  unreachable

11:                                               ; preds = %1
  call void @llvm.lifetime.end.p0(i64 4, ptr %3) #3
  ret void
}

; Function Attrs: mustprogress nounwind uwtable
define linkonce_odr hidden void @_ZNSt10lock_guardISt5mutexED2Ev(ptr noundef nonnull align 8 dereferenceable(8) %0) unnamed_addr #6 comdat align 2 personality ptr @__gxx_personality_v0 {
  %2 = alloca ptr, align 8
  store ptr %0, ptr %2, align 8, !tbaa !22
  %3 = load ptr, ptr %2, align 8
  %4 = getelementptr inbounds nuw %"class.std::lock_guard", ptr %3, i32 0, i32 0
  %5 = load ptr, ptr %4, align 8, !tbaa !24
  invoke void @_ZNSt5mutex6unlockEv(ptr noundef nonnull align 8 dereferenceable(40) %5)
          to label %6 unwind label %7

6:                                                ; preds = %1
  ret void

7:                                                ; preds = %1
  %8 = landingpad { ptr, i32 }
          catch ptr null
  %9 = extractvalue { ptr, i32 } %8, 0
  call void @__clang_call_terminate(ptr %9) #21
  unreachable
}

; Function Attrs: mustprogress nounwind uwtable
define linkonce_odr hidden noundef zeroext i1 @_ZNSt6atomicIbEaSEb(ptr noundef nonnull align 1 dereferenceable(1) %0, i1 noundef zeroext %1) #6 comdat align 2 {
  %3 = alloca ptr, align 8
  %4 = alloca i8, align 1
  store ptr %0, ptr %3, align 8, !tbaa !26
  %5 = zext i1 %1 to i8
  store i8 %5, ptr %4, align 1, !tbaa !12
  %6 = load ptr, ptr %3, align 8
  %7 = getelementptr inbounds nuw %"struct.std::atomic", ptr %6, i32 0, i32 0
  %8 = load i8, ptr %4, align 1, !tbaa !12, !range !16, !noundef !17
  %9 = trunc i8 %8 to i1
  %10 = call noundef zeroext i1 @_ZNSt13__atomic_baseIbEaSEb(ptr noundef nonnull align 1 dereferenceable(1) %7, i1 noundef zeroext %9) #3
  ret i1 %10
}

; Function Attrs: mustprogress uwtable
define linkonce_odr hidden void @_ZNSt10lock_guardISt5mutexEC2ERS0_(ptr noundef nonnull align 8 dereferenceable(8) %0, ptr noundef nonnull align 8 dereferenceable(40) %1) unnamed_addr #4 comdat align 2 {
  %3 = alloca ptr, align 8
  %4 = alloca ptr, align 8
  store ptr %0, ptr %3, align 8, !tbaa !22
  store ptr %1, ptr %4, align 8, !tbaa !10
  %5 = load ptr, ptr %3, align 8
  %6 = getelementptr inbounds nuw %"class.std::lock_guard", ptr %5, i32 0, i32 0
  %7 = load ptr, ptr %4, align 8, !tbaa !10
  store ptr %7, ptr %6, align 8, !tbaa !10
  %8 = getelementptr inbounds nuw %"class.std::lock_guard", ptr %5, i32 0, i32 0
  %9 = load ptr, ptr %8, align 8, !tbaa !24
  call void @_ZNSt5mutex4lockEv(ptr noundef nonnull align 8 dereferenceable(40) %9)
  ret void
}

; Function Attrs: mustprogress uwtable
define hidden void @_ZN6memory10initializeEm(i64 noundef %0) #4 align 2 personality ptr @__gxx_personality_v0 {
  %2 = alloca i64, align 8
  %3 = alloca %"class.std::lock_guard", align 8
  %4 = alloca i32, align 4
  %5 = alloca ptr, align 8
  %6 = alloca i32, align 4
  store i64 %0, ptr %2, align 8, !tbaa !18
  call void @llvm.lifetime.start.p0(i64 8, ptr %3) #3
  call void @_ZNSt10lock_guardISt5mutexEC2ERS0_(ptr noundef nonnull align 8 dereferenceable(8) %3, ptr noundef nonnull align 8 dereferenceable(40) @_ZZN6memory10initializeEmE8init_mux)
  %7 = load i64, ptr %2, align 8, !tbaa !18
  %8 = icmp ne i64 %7, 4294967295
  br i1 %8, label %9, label %11

9:                                                ; preds = %1
  %10 = load i64, ptr %2, align 8, !tbaa !18
  store i64 %10, ptr @_ZL17g_memory_max_size, align 8, !tbaa !20
  br label %11

11:                                               ; preds = %9, %1
  %12 = load i8, ptr @_ZL20g_memory_initialized, align 1, !tbaa !12, !range !16, !noundef !17
  %13 = trunc i8 %12 to i1
  br i1 %13, label %14, label %15

14:                                               ; preds = %11
  store i32 1, ptr %4, align 4
  br label %18

15:                                               ; preds = %11
  %16 = call noundef zeroext i1 @_ZNSt6atomicIbEaSEb(ptr noundef nonnull align 1 dereferenceable(1) @_ZL22g_memory_out_of_memory, i1 noundef zeroext false) #3
  invoke void @_Z14mem_initializev()
          to label %17 unwind label %21

17:                                               ; preds = %15
  store i8 1, ptr @_ZL20g_memory_initialized, align 1, !tbaa !12
  store i32 0, ptr %4, align 4
  br label %18

18:                                               ; preds = %17, %14
  call void @_ZNSt10lock_guardISt5mutexED2Ev(ptr noundef nonnull align 8 dereferenceable(8) %3) #3
  call void @llvm.lifetime.end.p0(i64 8, ptr %3) #3
  %19 = load i32, ptr %4, align 4
  switch i32 %19, label %30 [
    i32 0, label %20
    i32 1, label %20
  ]

20:                                               ; preds = %18, %18
  ret void

21:                                               ; preds = %15
  %22 = landingpad { ptr, i32 }
          cleanup
  %23 = extractvalue { ptr, i32 } %22, 0
  store ptr %23, ptr %5, align 8
  %24 = extractvalue { ptr, i32 } %22, 1
  store i32 %24, ptr %6, align 4
  call void @_ZNSt10lock_guardISt5mutexED2Ev(ptr noundef nonnull align 8 dereferenceable(8) %3) #3
  call void @llvm.lifetime.end.p0(i64 8, ptr %3) #3
  br label %25

25:                                               ; preds = %21
  %26 = load ptr, ptr %5, align 8
  %27 = load i32, ptr %6, align 4
  %28 = insertvalue { ptr, i32 } poison, ptr %26, 0
  %29 = insertvalue { ptr, i32 } %28, i32 %27, 1
  resume { ptr, i32 } %29

30:                                               ; preds = %18
  unreachable
}