; Function Attrs: mustprogress uwtable
define hidden void @_ZN6memory10initializeEm(i64 noundef %0) local_unnamed_addr #3 align 2 personality ptr @__gxx_personality_v0 {
  %2 = tail call noundef i32 @pthread_mutex_lock(ptr noundef nonnull align 8 dereferenceable(40) @_ZZN6memory10initializeEmE8init_mux) #25
  %.not.i.i = icmp eq i32 %2, 0
  br i1 %.not.i.i, label %_ZNSt10lock_guardISt5mutexEC2ERS0_.exit, label %3

3:                                                ; preds = %1
  tail call void @_ZSt20__throw_system_errori(i32 noundef %2) #26
  unreachable

_ZNSt10lock_guardISt5mutexEC2ERS0_.exit:          ; preds = %1
  %.not = icmp eq i64 %0, 4294967295
  br i1 %.not, label %5, label %4

4:                                                ; preds = %_ZNSt10lock_guardISt5mutexEC2ERS0_.exit
  store i64 %0, ptr @_ZL17g_memory_max_size, align 8, !tbaa !12
  br label %5

5:                                                ; preds = %4, %_ZNSt10lock_guardISt5mutexEC2ERS0_.exit
  %.b3 = load i1, ptr @_ZL20g_memory_initialized, align 1
  br i1 %.b3, label %8, label %6

6:                                                ; preds = %5
  store atomic i8 0, ptr @_ZL22g_memory_out_of_memory.0 seq_cst, align 1
  invoke void @_Z14mem_initializev()
          to label %7 unwind label %10

7:                                                ; preds = %6
  store i1 true, ptr @_ZL20g_memory_initialized, align 1
  br label %8

8:                                                ; preds = %5, %7
  %9 = tail call noundef i32 @pthread_mutex_unlock(ptr noundef nonnull align 8 dereferenceable(40) @_ZZN6memory10initializeEmE8init_mux) #25
  ret void

10:                                               ; preds = %6
  %11 = landingpad { ptr, i32 }
          cleanup
  %12 = tail call noundef i32 @pthread_mutex_unlock(ptr noundef nonnull align 8 dereferenceable(40) @_ZZN6memory10initializeEmE8init_mux) #25
  resume { ptr, i32 } %11
}